target datalayout = "e-m:e-p270:32:32-p271:32:32-p272:64:64-i64:64-i128:128-f80:128-n8:16:32:64-S128"
target triple = "x86_64-pc-linux-gnu"

%struct.Clu_Man_t_ = type { i32, i32, i32, i32, i32, i32, i32, i32, i32, i32, i32, i32, i32, i32, i32, ptr, ptr, ptr, ptr, i32, i32, i32, ptr, ptr, ptr, i32, i32, i32, i32, ptr, ptr, ptr, i32, i32 }
%struct.Cnf_Dat_t_ = type { ptr, i32, i32, i32, ptr, ptr, ptr, ptr, ptr, ptr }
%struct.Aig_Obj_t_ = type { %union.anon, ptr, ptr, i64, i32, i32, %union.anon.0 }
%union.anon = type { ptr }
%union.anon.0 = type { ptr }
%struct.Aig_Man_t_ = type { ptr, ptr, ptr, ptr, ptr, ptr, ptr, %struct.Aig_Obj_t_, i32, i32, i32, i32, i32, i32, [7 x i32], i32, ptr, i32, ptr, i32, ptr, i32, i32, i32, ptr, i32, i32, i32, i32, i32, ptr, ptr, i32, ptr, ptr, i32, ptr, ptr, i32, i32, i32, ptr, ptr, ptr, ptr, ptr, ptr, ptr, ptr, ptr, ptr, ptr, ptr, ptr, ptr, i32, ptr, ptr, ptr, ptr, i32, i64, i64, i64, ptr, ptr }
%struct.Vec_Ptr_t_ = type { i32, i32, ptr }

; Function Attrs: inlinehint nounwind uwtable
define internal ptr @Vec_PtrEntry(ptr noundef %0, i32 noundef %1) #2 {
  %3 = alloca ptr, align 8
  %4 = alloca i32, align 4
  store ptr %0, ptr %3, align 8, !tbaa !109
  store i32 %1, ptr %4, align 4, !tbaa !21
  %5 = load ptr, ptr %3, align 8, !tbaa !109
  %6 = getelementptr inbounds nuw %struct.Vec_Ptr_t_, ptr %5, i32 0, i32 2
  %7 = load ptr, ptr %6, align 8, !tbaa !112
  %8 = load i32, ptr %4, align 4, !tbaa !21
  %9 = sext i32 %8 to i64
  %10 = getelementptr inbounds ptr, ptr %7, i64 %9
  %11 = load ptr, ptr %10, align 8, !tbaa !113
  ret ptr %11
}

; Function Attrs: inlinehint nounwind uwtable
define internal i32 @toLitCond(i32 noundef %0, i32 noundef %1) #2 {
  %3 = alloca i32, align 4
  %4 = alloca i32, align 4
  store i32 %0, ptr %3, align 4, !tbaa !21
  store i32 %1, ptr %4, align 4, !tbaa !21
  %5 = load i32, ptr %3, align 4, !tbaa !21
  %6 = load i32, ptr %3, align 4, !tbaa !21
  %7 = add nsw i32 %5, %6
  %8 = load i32, ptr %4, align 4, !tbaa !21
  %9 = icmp ne i32 %8, 0
  %10 = zext i1 %9 to i32
  %11 = add nsw i32 %7, %10
  ret i32 %11
}

; Function Attrs: inlinehint nounwind uwtable
define internal ptr @Aig_ManCo(ptr noundef %0, i32 noundef %1) #2 {
  %3 = alloca ptr, align 8
  %4 = alloca i32, align 4
  store ptr %0, ptr %3, align 8, !tbaa !34
  store i32 %1, ptr %4, align 4, !tbaa !21
  %5 = load ptr, ptr %3, align 8, !tbaa !34
  %6 = getelementptr inbounds nuw %struct.Aig_Man_t_, ptr %5, i32 0, i32 3
  %7 = load ptr, ptr %6, align 8, !tbaa !35
  %8 = load i32, ptr %4, align 4, !tbaa !21
  %9 = call ptr @Vec_PtrEntry(ptr noundef %7, i32 noundef %8)
  ret ptr %9
}

; Function Attrs: nounwind uwtable
define i32 @Fra_ClausRunSat(ptr noundef %0) #0 {
  %2 = alloca i32, align 4
  %3 = alloca ptr, align 8
  %4 = alloca ptr, align 8
  %5 = alloca ptr, align 8
  %6 = alloca i32, align 4
  %7 = alloca i32, align 4
  %8 = alloca i32, align 4
  store ptr %0, ptr %3, align 8, !tbaa !3
  call void @llvm.lifetime.start.p0(i64 8, ptr %4) #11
  call void @llvm.lifetime.start.p0(i64 8, ptr %5) #11
  call void @llvm.lifetime.start.p0(i64 4, ptr %6) #11
  call void @llvm.lifetime.start.p0(i64 4, ptr %7) #11
  %9 = load ptr, ptr %3, align 8, !tbaa !3
  %10 = getelementptr inbounds nuw %struct.Clu_Man_t_, ptr %9, i32 0, i32 0
  %11 = load i32, ptr %10, align 8, !tbaa !26
  %12 = add nsw i32 %11, 1
  %13 = sext i32 %12 to i64
  %14 = mul i64 4, %13
  %15 = call noalias ptr @malloc(i64 noundef %14) #12
  store ptr %15, ptr %5, align 8, !tbaa !42
  %16 = load ptr, ptr %3, align 8, !tbaa !3
  %17 = getelementptr inbounds nuw %struct.Clu_Man_t_, ptr %16, i32 0, i32 15
  %18 = load ptr, ptr %17, align 8, !tbaa !22
  %19 = call ptr @Aig_ManCo(ptr noundef %18, i32 noundef 0)
  store ptr %19, ptr %4, align 8, !tbaa !23
  store i32 0, ptr %6, align 4, !tbaa !21
  br label %20

20:                                               ; preds = %58, %1
  %21 = load i32, ptr %6, align 4, !tbaa !21
  %22 = load ptr, ptr %3, align 8, !tbaa !3
  %23 = getelementptr inbounds nuw %struct.Clu_Man_t_, ptr %22, i32 0, i32 0
  %24 = load i32, ptr %23, align 8, !tbaa !26
  %25 = icmp sle i32 %21, %24
  br i1 %25, label %26, label %61

26:                                               ; preds = %20
  %27 = load i32, ptr %6, align 4, !tbaa !21
  %28 = mul nsw i32 %27, 2
  %29 = load ptr, ptr %3, align 8, !tbaa !3
  %30 = getelementptr inbounds nuw %struct.Clu_Man_t_, ptr %29, i32 0, i32 18
  %31 = load ptr, ptr %30, align 8, !tbaa !8
  %32 = getelementptr inbounds nuw %struct.Cnf_Dat_t_, ptr %31, i32 0, i32 1
  %33 = load i32, ptr %32, align 8, !tbaa !16
  %34 = mul nsw i32 %28, %33
  %35 = load ptr, ptr %3, align 8, !tbaa !3
  %36 = getelementptr inbounds nuw %struct.Clu_Man_t_, ptr %35, i32 0, i32 18
  %37 = load ptr, ptr %36, align 8, !tbaa !8
  %38 = getelementptr inbounds nuw %struct.Cnf_Dat_t_, ptr %37, i32 0, i32 5
  %39 = load ptr, ptr %38, align 8, !tbaa !27
  %40 = load ptr, ptr %4, align 8, !tbaa !23
  %41 = getelementptr inbounds nuw %struct.Aig_Obj_t_, ptr %40, i32 0, i32 5
  %42 = load i32, ptr %41, align 4, !tbaa !28
  %43 = sext i32 %42 to i64
  %44 = getelementptr inbounds i32, ptr %39, i64 %43
  %45 = load i32, ptr %44, align 4, !tbaa !21
  %46 = load i32, ptr %6, align 4, !tbaa !21
  %47 = load ptr, ptr %3, align 8, !tbaa !3
  %48 = getelementptr inbounds nuw %struct.Clu_Man_t_, ptr %47, i32 0, i32 0
  %49 = load i32, ptr %48, align 8, !tbaa !26
  %50 = icmp ne i32 %46, %49
  %51 = zext i1 %50 to i32
  %52 = call i32 @toLitCond(i32 noundef %45, i32 noundef %51)
  %53 = add nsw i32 %34, %52
  %54 = load ptr, ptr %5, align 8, !tbaa !42
  %55 = load i32, ptr %6, align 4, !tbaa !21
  %56 = sext i32 %55 to i64
  %57 = getelementptr inbounds i32, ptr %54, i64 %56
  store i32 %53, ptr %57, align 4, !tbaa !21
  br label %58

58:                                               ; preds = %26
  %59 = load i32, ptr %6, align 4, !tbaa !21
  %60 = add nsw i32 %59, 1
  store i32 %60, ptr %6, align 4, !tbaa !21
  br label %20, !llvm.loop !43

61:                                               ; preds = %20
  %62 = load ptr, ptr %3, align 8, !tbaa !3
  %63 = getelementptr inbounds nuw %struct.Clu_Man_t_, ptr %62, i32 0, i32 16
  %64 = load ptr, ptr %63, align 8, !tbaa !44
  %65 = load ptr, ptr %5, align 8, !tbaa !42
  %66 = load ptr, ptr %5, align 8, !tbaa !42
  %67 = load ptr, ptr %3, align 8, !tbaa !3
  %68 = getelementptr inbounds nuw %struct.Clu_Man_t_, ptr %67, i32 0, i32 0
  %69 = load i32, ptr %68, align 8, !tbaa !26
  %70 = sext i32 %69 to i64
  %71 = getelementptr inbounds i32, ptr %66, i64 %70
  %72 = getelementptr inbounds i32, ptr %71, i64 1
  %73 = load ptr, ptr %3, align 8, !tbaa !3
  %74 = getelementptr inbounds nuw %struct.Clu_Man_t_, ptr %73, i32 0, i32 14
  %75 = load i32, ptr %74, align 8, !tbaa !31
  %76 = sext i32 %75 to i64
  %77 = call i32 @sat_solver_solve(ptr noundef %64, ptr noundef %65, ptr noundef %72, i64 noundef %76, i64 noundef 0, i64 noundef 0, i64 noundef 0)
  store i32 %77, ptr %7, align 4, !tbaa !21
  %78 = load ptr, ptr %5, align 8, !tbaa !42
  %79 = icmp ne ptr %78, null
  br i1 %79, label %80, label %82

80:                                               ; preds = %61
  %81 = load ptr, ptr %5, align 8, !tbaa !42
  call void @free(ptr noundef %81) #11
  store ptr null, ptr %5, align 8, !tbaa !42
  br label %83

82:                                               ; preds = %61
  br label %83

83:                                               ; preds = %82, %80
  %84 = load i32, ptr %7, align 4, !tbaa !21
  %85 = icmp eq i32 %84, -1
  br i1 %85, label %86, label %87

86:                                               ; preds = %83
  store i32 1, ptr %2, align 4
  store i32 1, ptr %8, align 4
  br label %88

87:                                               ; preds = %83
  store i32 0, ptr %2, align 4
  store i32 1, ptr %8, align 4
  br label %88

88:                                               ; preds = %87, %86
  call void @llvm.lifetime.end.p0(i64 4, ptr %7) #11
  call void @llvm.lifetime.end.p0(i64 4, ptr %6) #11
  call void @llvm.lifetime.end.p0(i64 8, ptr %5) #11
  call void @llvm.lifetime.end.p0(i64 8, ptr %4) #11
  %89 = load i32, ptr %2, align 4
  ret i32 %89
}