; Function Attrs: nounwind uwtable
define range(i32 0, 2) i32 @Fra_ClausRunSat(ptr noundef readonly captures(none) %0) local_unnamed_addr #0 {
  %2 = load i32, ptr %0, align 8, !tbaa !20
  %3 = add i32 %2, 1
  %4 = sext i32 %3 to i64
  %5 = shl nsw i64 %4, 2
  %6 = tail call noalias ptr @malloc(i64 noundef %5) #24
  %.not25 = icmp slt i32 %2, 0
  br i1 %.not25, label %._crit_edge, label %.lr.ph

.lr.ph:                                           ; preds = %1
  %7 = getelementptr inbounds nuw i8, ptr %0, i64 64
  %8 = load ptr, ptr %7, align 8, !tbaa !21
  %9 = getelementptr i8, ptr %8, i64 24
  %.val = load ptr, ptr %9, align 8, !tbaa !22
  %10 = getelementptr i8, ptr %.val, i64 8
  %.val.val = load ptr, ptr %10, align 8, !tbaa !31
  %11 = load ptr, ptr %.val.val, align 8, !tbaa !33
  %12 = getelementptr inbounds nuw i8, ptr %0, i64 88
  %13 = load ptr, ptr %12, align 8, !tbaa !3
  %14 = getelementptr inbounds nuw i8, ptr %13, i64 8
  %15 = getelementptr inbounds nuw i8, ptr %13, i64 32
  %16 = load ptr, ptr %15, align 8, !tbaa !36
  %17 = getelementptr inbounds nuw i8, ptr %11, i64 36
  %18 = zext nneg i32 %2 to i64
  %wide.trip.count = zext i32 %3 to i64
  %.pre = load i32, ptr %14, align 8, !tbaa !14
  %.pre28 = load i32, ptr %17, align 4, !tbaa !37
  %.phi.trans.insert = sext i32 %.pre28 to i64
  %.phi.trans.insert29 = getelementptr inbounds i32, ptr %16, i64 %.phi.trans.insert
  %.pre30 = load i32, ptr %.phi.trans.insert29, align 4, !tbaa !38
  %19 = shl nsw i32 %.pre30, 1
  br label %20

20:                                               ; preds = %.lr.ph, %20
  %indvars.iv = phi i64 [ 0, %.lr.ph ], [ %indvars.iv.next, %20 ]
  %indvars.iv.tr = trunc i64 %indvars.iv to i32
  %21 = shl i32 %indvars.iv.tr, 1
  %22 = mul nsw i32 %21, %.pre
  %23 = icmp ne i64 %indvars.iv, %18
  %24 = zext i1 %23 to i32
  %25 = or disjoint i32 %22, %24
  %26 = add i32 %25, %19
  %27 = getelementptr inbounds nuw i32, ptr %6, i64 %indvars.iv
  store i32 %26, ptr %27, align 4, !tbaa !38
  %indvars.iv.next = add nuw nsw i64 %indvars.iv, 1
  %exitcond.not = icmp eq i64 %indvars.iv.next, %wide.trip.count
  br i1 %exitcond.not, label %._crit_edge, label %20, !llvm.loop !41

._crit_edge:                                      ; preds = %20, %1
  %28 = getelementptr inbounds nuw i8, ptr %0, i64 72
  %29 = load ptr, ptr %28, align 8, !tbaa !42
  %30 = sext i32 %2 to i64
  %31 = getelementptr inbounds i32, ptr %6, i64 %30
  %32 = getelementptr inbounds nuw i8, ptr %31, i64 4
  %33 = getelementptr inbounds nuw i8, ptr %0, i64 56
  %34 = load i32, ptr %33, align 8, !tbaa !40
  %35 = sext i32 %34 to i64
  %36 = tail call i32 @sat_solver_solve(ptr noundef %29, ptr noundef %6, ptr noundef nonnull %32, i64 noundef %35, i64 noundef 0, i64 noundef 0, i64 noundef 0) #23
  tail call void @free(ptr noundef %6) #23
  %37 = icmp eq i32 %36, -1
  %. = zext i1 %37 to i32
  ret i32 %.
}